; Function Attrs: mustprogress uwtable
define void @_ZN2cv8superres15SuperResolution5resetEv(ptr noundef nonnull align 8 captures(none) dereferenceable(41) initializes((16, 17), (40, 41)) %0) unnamed_addr #0 align 2 {
  %2 = getelementptr inbounds nuw i8, ptr %0, i64 24
  %3 = load ptr, ptr %2, align 8, !tbaa !6
  %4 = load ptr, ptr %3, align 8, !tbaa !3
  %5 = getelementptr inbounds nuw i8, ptr %4, i64 24
  %6 = load ptr, ptr %5, align 8
  tail call void %6(ptr noundef nonnull align 8 dereferenceable(8) %3)
  %7 = getelementptr inbounds nuw i8, ptr %0, i64 40
  store i8 1, ptr %7, align 8, !tbaa !21
  %8 = getelementptr inbounds nuw i8, ptr %0, i64 16
  store i8 0, ptr %8, align 8, !tbaa !28
  ret void
}